; Function Attrs: mustprogress uwtable
define internal void @_ZN12_GLOBAL__N_17EndTestEPiS0_PN4absl5MutexEPNS1_7CondVarERKSt8functionIFviEE(ptr nocapture noundef %c0, ptr nocapture noundef %c1, ptr noundef nonnull %mu, ptr noundef %cv, ptr noundef nonnull align 8 dereferenceable(32) %cb) #3 personality ptr @__gxx_personality_v0 {
entry:
  %__args.addr.i = alloca i32, align 4
  tail call void @_ZN4absl5Mutex4LockEv(ptr noundef nonnull align 8 dereferenceable(8) %mu)
  %0 = load i32, ptr %c0, align 4
  %inc = add nsw i32 %0, 1
  store i32 %inc, ptr %c0, align 4
  tail call void @_ZN4absl5Mutex6UnlockEv(ptr noundef nonnull align 8 dereferenceable(8) %mu)
  call void @llvm.lifetime.start.p0(i64 4, ptr nonnull %__args.addr.i)
  store i32 %0, ptr %__args.addr.i, align 4
  %_M_manager.i.i = getelementptr inbounds i8, ptr %cb, i64 16
  %1 = load ptr, ptr %_M_manager.i.i, align 8
  %tobool.not.i.i = icmp eq ptr %1, null
  br i1 %tobool.not.i.i, label %if.then.i, label %_ZNKSt8functionIFviEEclEi.exit

if.then.i:                                        ; preds = %entry
  tail call void @_ZSt25__throw_bad_function_callv() #35
  unreachable

_ZNKSt8functionIFviEEclEi.exit:                   ; preds = %entry
  %_M_invoker.i = getelementptr inbounds i8, ptr %cb, i64 24
  %2 = load ptr, ptr %_M_invoker.i, align 8
  call void %2(ptr noundef nonnull align 8 dereferenceable(16) %cb, ptr noundef nonnull align 4 dereferenceable(4) %__args.addr.i)
  call void @llvm.lifetime.end.p0(i64 4, ptr nonnull %__args.addr.i)
  call void @_ZN4absl5Mutex4LockEv(ptr noundef nonnull align 8 dereferenceable(8) %mu)
  %3 = load i32, ptr %c1, align 4
  %inc1 = add nsw i32 %3, 1
  store i32 %inc1, ptr %c1, align 4
  invoke void @_ZN4absl7CondVar6SignalEv(ptr noundef nonnull align 8 dereferenceable(8) %cv)
          to label %invoke.cont unwind label %lpad

invoke.cont:                                      ; preds = %_ZNKSt8functionIFviEEclEi.exit
  invoke void @_ZN4absl5Mutex6UnlockEv(ptr noundef nonnull align 8 dereferenceable(8) %mu)
          to label %_ZN4absl9MutexLockD2Ev.exit unwind label %terminate.lpad.i

terminate.lpad.i:                                 ; preds = %invoke.cont
  %4 = landingpad { ptr, i32 }
          catch ptr null
  %5 = extractvalue { ptr, i32 } %4, 0
  call void @__clang_call_terminate(ptr %5) #38
  unreachable

_ZN4absl9MutexLockD2Ev.exit:                      ; preds = %invoke.cont
  ret void

lpad:                                             ; preds = %_ZNKSt8functionIFviEEclEi.exit
  %6 = landingpad { ptr, i32 }
          cleanup
  invoke void @_ZN4absl5Mutex6UnlockEv(ptr noundef nonnull align 8 dereferenceable(8) %mu)
          to label %_ZN4absl9MutexLockD2Ev.exit4 unwind label %terminate.lpad.i3

terminate.lpad.i3:                                ; preds = %lpad
  %7 = landingpad { ptr, i32 }
          catch ptr null
  %8 = extractvalue { ptr, i32 } %7, 0
  call void @__clang_call_terminate(ptr %8) #38
  unreachable

_ZN4absl9MutexLockD2Ev.exit4:                     ; preds = %lpad
  resume { ptr, i32 } %6
}